target datalayout = "e-m:e-p270:32:32-p271:32:32-p272:64:64-i64:64-i128:128-f80:128-n8:16:32:64-S128"
target triple = "x86_64-pc-linux-gnu"

%struct.Dl_info = type { ptr, ptr, ptr, ptr }

@.str.243 = private unnamed_addr constant [11 x i8] c"0x%016lx: \00", align 1
@.str.244 = private unnamed_addr constant [12 x i8] c"%s+0x%016lx\00", align 1
@.str.245 = private unnamed_addr constant [18 x i8] c"<offset 0x%016lx>\00", align 1
@.str.246 = private unnamed_addr constant [19 x i8] c"<absolute address>\00", align 1
@.str.247 = private unnamed_addr constant [7 x i8] c" in %s\00", align 1
@.str.248 = private unnamed_addr constant [13 x i8] c" at 0x%016lx\00", align 1

; Function Attrs: mustprogress nounwind uwtable
define linkonce_odr hidden noundef i64 @_Z3p2iPVKv(ptr noundef %0) #1 comdat {
  %2 = alloca ptr, align 8
  store ptr %0, ptr %2, align 8
  %3 = load ptr, ptr %2, align 8
  %4 = ptrtoint ptr %3 to i64
  ret i64 %4
}

; Function Attrs: mustprogress nounwind uwtable
define hidden noundef zeroext i1 @_ZN2os4findEPhP12outputStream(ptr noundef %0, ptr noundef %1) #1 align 2 {
  %3 = alloca i1, align 1
  %4 = alloca ptr, align 8
  %5 = alloca ptr, align 8
  %6 = alloca %struct.Dl_info, align 8
  store ptr %0, ptr %4, align 8
  store ptr %1, ptr %5, align 8
  call void @llvm.memset.p0.i64(ptr align 8 %6, i8 0, i64 32, i1 false)
  %7 = load ptr, ptr %4, align 8
  %8 = call i32 @dladdr(ptr noundef %7, ptr noundef %6) #12
  %9 = icmp ne i32 %8, 0
  br i1 %9, label %10, label %65

10:                                               ; preds = %2
  %11 = load ptr, ptr %5, align 8
  %12 = load ptr, ptr %4, align 8
  %13 = call noundef i64 @_Z3p2iPVKv(ptr noundef %12)
  call void (ptr, ptr, ...) @_ZN12outputStream5printEPKcz(ptr noundef nonnull align 8 dereferenceable(56) %11, ptr noundef @.str.243, i64 noundef %13)
  %14 = getelementptr inbounds %struct.Dl_info, ptr %6, i32 0, i32 2
  %15 = load ptr, ptr %14, align 8
  %16 = icmp ne ptr %15, null
  br i1 %16, label %17, label %31

17:                                               ; preds = %10
  %18 = getelementptr inbounds %struct.Dl_info, ptr %6, i32 0, i32 3
  %19 = load ptr, ptr %18, align 8
  %20 = icmp ne ptr %19, null
  br i1 %20, label %21, label %31

21:                                               ; preds = %17
  %22 = load ptr, ptr %5, align 8
  %23 = getelementptr inbounds %struct.Dl_info, ptr %6, i32 0, i32 2
  %24 = load ptr, ptr %23, align 8
  %25 = load ptr, ptr %4, align 8
  %26 = call noundef i64 @_Z3p2iPVKv(ptr noundef %25)
  %27 = getelementptr inbounds %struct.Dl_info, ptr %6, i32 0, i32 3
  %28 = load ptr, ptr %27, align 8
  %29 = call noundef i64 @_Z3p2iPVKv(ptr noundef %28)
  %30 = sub nsw i64 %26, %29
  call void (ptr, ptr, ...) @_ZN12outputStream5printEPKcz(ptr noundef nonnull align 8 dereferenceable(56) %22, ptr noundef @.str.244, ptr noundef %24, i64 noundef %30)
  br label %46

31:                                               ; preds = %17, %10
  %32 = getelementptr inbounds %struct.Dl_info, ptr %6, i32 0, i32 1
  %33 = load ptr, ptr %32, align 8
  %34 = icmp ne ptr %33, null
  br i1 %34, label %35, label %43

35:                                               ; preds = %31
  %36 = load ptr, ptr %5, align 8
  %37 = load ptr, ptr %4, align 8
  %38 = call noundef i64 @_Z3p2iPVKv(ptr noundef %37)
  %39 = getelementptr inbounds %struct.Dl_info, ptr %6, i32 0, i32 1
  %40 = load ptr, ptr %39, align 8
  %41 = call noundef i64 @_Z3p2iPVKv(ptr noundef %40)
  %42 = sub nsw i64 %38, %41
  call void (ptr, ptr, ...) @_ZN12outputStream5printEPKcz(ptr noundef nonnull align 8 dereferenceable(56) %36, ptr noundef @.str.245, i64 noundef %42)
  br label %45

43:                                               ; preds = %31
  %44 = load ptr, ptr %5, align 8
  call void (ptr, ptr, ...) @_ZN12outputStream5printEPKcz(ptr noundef nonnull align 8 dereferenceable(56) %44, ptr noundef @.str.246)
  br label %45

45:                                               ; preds = %43, %35
  br label %46

46:                                               ; preds = %45, %21
  %47 = getelementptr inbounds %struct.Dl_info, ptr %6, i32 0, i32 0
  %48 = load ptr, ptr %47, align 8
  %49 = icmp ne ptr %48, null
  br i1 %49, label %50, label %54

50:                                               ; preds = %46
  %51 = load ptr, ptr %5, align 8
  %52 = getelementptr inbounds %struct.Dl_info, ptr %6, i32 0, i32 0
  %53 = load ptr, ptr %52, align 8
  call void (ptr, ptr, ...) @_ZN12outputStream5printEPKcz(ptr noundef nonnull align 8 dereferenceable(56) %51, ptr noundef @.str.247, ptr noundef %53)
  br label %54

54:                                               ; preds = %50, %46
  %55 = getelementptr inbounds %struct.Dl_info, ptr %6, i32 0, i32 1
  %56 = load ptr, ptr %55, align 8
  %57 = icmp ne ptr %56, null
  br i1 %57, label %58, label %63

58:                                               ; preds = %54
  %59 = load ptr, ptr %5, align 8
  %60 = getelementptr inbounds %struct.Dl_info, ptr %6, i32 0, i32 1
  %61 = load ptr, ptr %60, align 8
  %62 = call noundef i64 @_Z3p2iPVKv(ptr noundef %61)
  call void (ptr, ptr, ...) @_ZN12outputStream5printEPKcz(ptr noundef nonnull align 8 dereferenceable(56) %59, ptr noundef @.str.248, i64 noundef %62)
  br label %63

63:                                               ; preds = %58, %54
  %64 = load ptr, ptr %5, align 8
  call void @_ZN12outputStream2crEv(ptr noundef nonnull align 8 dereferenceable(56) %64)
  store i1 true, ptr %3, align 1
  br label %66

65:                                               ; preds = %2
  store i1 false, ptr %3, align 1
  br label %66

66:                                               ; preds = %65, %63
  %67 = load i1, ptr %3, align 1
  ret i1 %67
}