; Function Attrs: mustprogress nounwind uwtable
define hidden noundef zeroext i1 @_ZN2os4findEPhP12outputStream(ptr noundef %0, ptr noundef %1) local_unnamed_addr #0 align 2 {
  %3 = alloca %struct.Dl_info, align 8
  call void @llvm.memset.p0.i64(ptr noundef nonnull align 8 dereferenceable(32) %3, i8 0, i64 32, i1 false)
  %4 = call i32 @dladdr(ptr noundef %0, ptr noundef nonnull %3) #26
  %.not = icmp ne i32 %4, 0
  br i1 %.not, label %5, label %32

5:                                                ; preds = %2
  %6 = ptrtoint ptr %0 to i64
  call void (ptr, ptr, ...) @_ZN12outputStream5printEPKcz(ptr noundef nonnull align 8 dereferenceable(56) %1, ptr noundef nonnull @.str.243, i64 noundef %6) #26
  %7 = getelementptr inbounds i8, ptr %3, i64 16
  %8 = load ptr, ptr %7, align 8
  %9 = icmp ne ptr %8, null
  %10 = getelementptr inbounds i8, ptr %3, i64 24
  %11 = load ptr, ptr %10, align 8
  %12 = icmp ne ptr %11, null
  %or.cond = select i1 %9, i1 %12, i1 false
  br i1 %or.cond, label %13, label %16

13:                                               ; preds = %5
  %14 = ptrtoint ptr %11 to i64
  %15 = sub nsw i64 %6, %14
  call void (ptr, ptr, ...) @_ZN12outputStream5printEPKcz(ptr noundef nonnull align 8 dereferenceable(56) %1, ptr noundef nonnull @.str.244, ptr noundef nonnull %8, i64 noundef %15) #26
  br label %23

16:                                               ; preds = %5
  %17 = getelementptr inbounds i8, ptr %3, i64 8
  %18 = load ptr, ptr %17, align 8
  %.not17 = icmp eq ptr %18, null
  br i1 %.not17, label %22, label %19

19:                                               ; preds = %16
  %20 = ptrtoint ptr %18 to i64
  %21 = sub nsw i64 %6, %20
  call void (ptr, ptr, ...) @_ZN12outputStream5printEPKcz(ptr noundef nonnull align 8 dereferenceable(56) %1, ptr noundef nonnull @.str.245, i64 noundef %21) #26
  br label %23

22:                                               ; preds = %16
  call void (ptr, ptr, ...) @_ZN12outputStream5printEPKcz(ptr noundef nonnull align 8 dereferenceable(56) %1, ptr noundef nonnull @.str.246) #26
  br label %23

23:                                               ; preds = %19, %22, %13
  %24 = load ptr, ptr %3, align 8
  %.not18 = icmp eq ptr %24, null
  br i1 %.not18, label %26, label %25

25:                                               ; preds = %23
  call void (ptr, ptr, ...) @_ZN12outputStream5printEPKcz(ptr noundef nonnull align 8 dereferenceable(56) %1, ptr noundef nonnull @.str.247, ptr noundef nonnull %24) #26
  br label %26

26:                                               ; preds = %25, %23
  %27 = getelementptr inbounds i8, ptr %3, i64 8
  %28 = load ptr, ptr %27, align 8
  %.not19 = icmp eq ptr %28, null
  br i1 %.not19, label %31, label %29

29:                                               ; preds = %26
  %30 = ptrtoint ptr %28 to i64
  call void (ptr, ptr, ...) @_ZN12outputStream5printEPKcz(ptr noundef nonnull align 8 dereferenceable(56) %1, ptr noundef nonnull @.str.248, i64 noundef %30) #26
  br label %31

31:                                               ; preds = %29, %26
  call void @_ZN12outputStream2crEv(ptr noundef nonnull align 8 dereferenceable(56) %1) #26
  br label %32

32:                                               ; preds = %2, %31
  ret i1 %.not
}